target datalayout = "e-m:e-p270:32:32-p271:32:32-p272:64:64-i64:64-i128:128-f80:128-n8:16:32:64-S128"
target triple = "x86_64-pc-linux-gnu"

%struct.__loadu_ps = type { <4 x float> }
%struct.stbir__contributors = type { i32, i32 }
%struct.__mm_storel_epi64_struct = type { i64 }
%struct.__mm_loadl_epi64_struct = type { i64 }

; Function Attrs: alwaysinline nounwind uwtable
define available_externally void @_mm_storel_epi64(ptr noundef %0, <2 x i64> noundef %1) #2 {
  %3 = alloca ptr, align 8
  %4 = alloca <2 x i64>, align 16
  store ptr %0, ptr %3, align 8, !tbaa !3
  store <2 x i64> %1, ptr %4, align 16, !tbaa !12
  %5 = load <2 x i64>, ptr %4, align 16, !tbaa !12
  %6 = extractelement <2 x i64> %5, i32 0
  %7 = load ptr, ptr %3, align 8, !tbaa !3
  %8 = getelementptr inbounds nuw %struct.__mm_storel_epi64_struct, ptr %7, i32 0, i32 0
  store i64 %6, ptr %8, align 1, !tbaa !12
  ret void
}

; Function Attrs: alwaysinline nounwind uwtable
define available_externally <2 x i64> @_mm_loadl_epi64(ptr noundef %0) #2 {
  %2 = alloca ptr, align 8
  %3 = alloca <2 x i64>, align 16
  store ptr %0, ptr %2, align 8, !tbaa !3
  %4 = load ptr, ptr %2, align 8, !tbaa !3
  %5 = getelementptr inbounds nuw %struct.__mm_loadl_epi64_struct, ptr %4, i32 0, i32 0
  %6 = load i64, ptr %5, align 1, !tbaa !12
  %7 = insertelement <2 x i64> poison, i64 %6, i32 0
  %8 = insertelement <2 x i64> %7, i64 0, i32 1
  store <2 x i64> %8, ptr %3, align 16, !tbaa !12
  %9 = load <2 x i64>, ptr %3, align 16, !tbaa !12
  ret <2 x i64> %9
}

; Function Attrs: alwaysinline nounwind uwtable
define available_externally <4 x float> @_mm_add_ps(<4 x float> noundef %0, <4 x float> noundef %1) #2 {
  %3 = alloca <4 x float>, align 16
  %4 = alloca <4 x float>, align 16
  store <4 x float> %0, ptr %3, align 16, !tbaa !12
  store <4 x float> %1, ptr %4, align 16, !tbaa !12
  %5 = load <4 x float>, ptr %3, align 16, !tbaa !12
  %6 = load <4 x float>, ptr %4, align 16, !tbaa !12
  %7 = fadd <4 x float> %5, %6
  ret <4 x float> %7
}

; Function Attrs: alwaysinline nounwind uwtable
define available_externally <4 x float> @_mm_mul_ps(<4 x float> noundef %0, <4 x float> noundef %1) #2 {
  %3 = alloca <4 x float>, align 16
  %4 = alloca <4 x float>, align 16
  store <4 x float> %0, ptr %3, align 16, !tbaa !12
  store <4 x float> %1, ptr %4, align 16, !tbaa !12
  %5 = load <4 x float>, ptr %3, align 16, !tbaa !12
  %6 = load <4 x float>, ptr %4, align 16, !tbaa !12
  %7 = fmul <4 x float> %5, %6
  ret <4 x float> %7
}

; Function Attrs: alwaysinline nounwind uwtable
define available_externally <4 x float> @_mm_castsi128_ps(<2 x i64> noundef %0) #2 {
  %2 = alloca <2 x i64>, align 16
  store <2 x i64> %0, ptr %2, align 16, !tbaa !12
  %3 = load <2 x i64>, ptr %2, align 16, !tbaa !12
  %4 = bitcast <2 x i64> %3 to <4 x float>
  ret <4 x float> %4
}

; Function Attrs: alwaysinline nounwind uwtable
define available_externally <2 x i64> @_mm_castps_si128(<4 x float> noundef %0) #2 {
  %2 = alloca <4 x float>, align 16
  store <4 x float> %0, ptr %2, align 16, !tbaa !12
  %3 = load <4 x float>, ptr %2, align 16, !tbaa !12
  %4 = bitcast <4 x float> %3 to <2 x i64>
  ret <2 x i64> %4
}

; Function Attrs: alwaysinline nounwind uwtable
define available_externally <4 x float> @_mm_loadu_ps(ptr noundef %0) #2 {
  %2 = alloca ptr, align 8
  store ptr %0, ptr %2, align 8, !tbaa !21
  %3 = load ptr, ptr %2, align 8, !tbaa !21
  %4 = getelementptr inbounds nuw %struct.__loadu_ps, ptr %3, i32 0, i32 0
  %5 = load <4 x float>, ptr %4, align 1, !tbaa !12
  ret <4 x float> %5
}

; Function Attrs: nounwind uwtable
define void @stbir__horizontal_gather_2_channels_with_n_coeffs_mod3(ptr noundef %0, i32 noundef %1, ptr noundef %2, ptr noundef %3, ptr noundef %4, i32 noundef %5) #0 {
  %7 = alloca ptr, align 8
  %8 = alloca i32, align 4
  %9 = alloca ptr, align 8
  %10 = alloca ptr, align 8
  %11 = alloca ptr, align 8
  %12 = alloca i32, align 4
  %13 = alloca ptr, align 8
  %14 = alloca ptr, align 8
  %15 = alloca ptr, align 8
  %16 = alloca i32, align 4
  %17 = alloca ptr, align 8
  %18 = alloca <4 x float>, align 16
  %19 = alloca <4 x float>, align 16
  %20 = alloca <4 x float>, align 16
  %21 = alloca <4 x float>, align 16
  %22 = alloca <4 x float>, align 16
  store ptr %0, ptr %7, align 8, !tbaa !21
  store i32 %1, ptr %8, align 4, !tbaa !26
  store ptr %2, ptr %9, align 8, !tbaa !21
  store ptr %3, ptr %10, align 8, !tbaa !3
  store ptr %4, ptr %11, align 8, !tbaa !21
  store i32 %5, ptr %12, align 4, !tbaa !26
  call void @llvm.lifetime.start.p0(i64 8, ptr %13) #12
  %23 = load ptr, ptr %7, align 8, !tbaa !21
  %24 = load i32, ptr %8, align 4, !tbaa !26
  %25 = mul i32 %24, 2
  %26 = zext i32 %25 to i64
  %27 = getelementptr inbounds nuw float, ptr %23, i64 %26
  store ptr %27, ptr %13, align 8, !tbaa !21
  call void @llvm.lifetime.start.p0(i64 8, ptr %14) #12
  %28 = load ptr, ptr %7, align 8, !tbaa !21
  store ptr %28, ptr %14, align 8, !tbaa !21
  br label %29

29:                                               ; preds = %170, %6
  call void @llvm.lifetime.start.p0(i64 8, ptr %15) #12
  %30 = load ptr, ptr %9, align 8, !tbaa !21
  %31 = load ptr, ptr %10, align 8, !tbaa !3
  %32 = getelementptr inbounds nuw %struct.stbir__contributors, ptr %31, i32 0, i32 0
  %33 = load i32, ptr %32, align 4, !tbaa !41
  %34 = mul nsw i32 %33, 2
  %35 = sext i32 %34 to i64
  %36 = getelementptr inbounds float, ptr %30, i64 %35
  store ptr %36, ptr %15, align 8, !tbaa !21
  call void @llvm.lifetime.start.p0(i64 4, ptr %16) #12
  %37 = load ptr, ptr %10, align 8, !tbaa !3
  %38 = getelementptr inbounds nuw %struct.stbir__contributors, ptr %37, i32 0, i32 1
  %39 = load i32, ptr %38, align 4, !tbaa !44
  %40 = load ptr, ptr %10, align 8, !tbaa !3
  %41 = getelementptr inbounds nuw %struct.stbir__contributors, ptr %40, i32 0, i32 0
  %42 = load i32, ptr %41, align 4, !tbaa !41
  %43 = sub nsw i32 %39, %42
  %44 = add nsw i32 %43, 1
  %45 = sub nsw i32 %44, 7
  %46 = add nsw i32 %45, 3
  %47 = ashr i32 %46, 2
  store i32 %47, ptr %16, align 4, !tbaa !26
  call void @llvm.lifetime.start.p0(i64 8, ptr %17) #12
  %48 = load ptr, ptr %11, align 8, !tbaa !21
  store ptr %48, ptr %17, align 8, !tbaa !21
  call void @llvm.lifetime.start.p0(i64 16, ptr %18) #12
  call void @llvm.lifetime.start.p0(i64 16, ptr %19) #12
  call void @llvm.lifetime.start.p0(i64 16, ptr %20) #12
  call void @llvm.lifetime.start.p0(i64 16, ptr %21) #12
  %49 = load ptr, ptr %15, align 8, !tbaa !21
  call void asm sideeffect "", "r,~{dirflag},~{fpsr},~{flags}"(ptr %49) #12, !srcloc !627
  %50 = load ptr, ptr %17, align 8, !tbaa !21
  %51 = call <4 x float> @_mm_loadu_ps(ptr noundef %50)
  store <4 x float> %51, ptr %21, align 16, !tbaa !12
  %52 = load <4 x float>, ptr %21, align 16, !tbaa !12
  %53 = call <2 x i64> @_mm_castps_si128(<4 x float> noundef %52)
  %54 = bitcast <2 x i64> %53 to <4 x i32>
  %55 = shufflevector <4 x i32> %54, <4 x i32> poison, <4 x i32> <i32 0, i32 0, i32 1, i32 1>
  %56 = bitcast <4 x i32> %55 to <2 x i64>
  %57 = call <4 x float> @_mm_castsi128_ps(<2 x i64> noundef %56)
  store <4 x float> %57, ptr %20, align 16, !tbaa !12
  %58 = load <4 x float>, ptr %20, align 16, !tbaa !12
  %59 = load ptr, ptr %15, align 8, !tbaa !21
  %60 = call <4 x float> @_mm_loadu_ps(ptr noundef %59)
  %61 = call <4 x float> @_mm_mul_ps(<4 x float> noundef %58, <4 x float> noundef %60)
  store <4 x float> %61, ptr %18, align 16, !tbaa !12
  %62 = load <4 x float>, ptr %21, align 16, !tbaa !12
  %63 = call <2 x i64> @_mm_castps_si128(<4 x float> noundef %62)
  %64 = bitcast <2 x i64> %63 to <4 x i32>
  %65 = shufflevector <4 x i32> %64, <4 x i32> poison, <4 x i32> <i32 2, i32 2, i32 3, i32 3>
  %66 = bitcast <4 x i32> %65 to <2 x i64>
  %67 = call <4 x float> @_mm_castsi128_ps(<2 x i64> noundef %66)
  store <4 x float> %67, ptr %20, align 16, !tbaa !12
  %68 = load <4 x float>, ptr %20, align 16, !tbaa !12
  %69 = load ptr, ptr %15, align 8, !tbaa !21
  %70 = getelementptr inbounds float, ptr %69, i64 4
  %71 = call <4 x float> @_mm_loadu_ps(ptr noundef %70)
  %72 = call <4 x float> @_mm_mul_ps(<4 x float> noundef %68, <4 x float> noundef %71)
  store <4 x float> %72, ptr %19, align 16, !tbaa !12
  br label %73

73:                                               ; preds = %111, %29
  %74 = load ptr, ptr %17, align 8, !tbaa !21
  %75 = getelementptr inbounds float, ptr %74, i64 4
  store ptr %75, ptr %17, align 8, !tbaa !21
  %76 = load ptr, ptr %15, align 8, !tbaa !21
  %77 = getelementptr inbounds float, ptr %76, i64 8
  store ptr %77, ptr %15, align 8, !tbaa !21
  %78 = load ptr, ptr %15, align 8, !tbaa !21
  call void asm sideeffect "", "r,~{dirflag},~{fpsr},~{flags}"(ptr %78) #12, !srcloc !628
  %79 = load ptr, ptr %17, align 8, !tbaa !21
  %80 = getelementptr inbounds float, ptr %79, i64 0
  %81 = call <4 x float> @_mm_loadu_ps(ptr noundef %80)
  store <4 x float> %81, ptr %21, align 16, !tbaa !12
  %82 = load <4 x float>, ptr %21, align 16, !tbaa !12
  %83 = call <2 x i64> @_mm_castps_si128(<4 x float> noundef %82)
  %84 = bitcast <2 x i64> %83 to <4 x i32>
  %85 = shufflevector <4 x i32> %84, <4 x i32> poison, <4 x i32> <i32 0, i32 0, i32 1, i32 1>
  %86 = bitcast <4 x i32> %85 to <2 x i64>
  %87 = call <4 x float> @_mm_castsi128_ps(<2 x i64> noundef %86)
  store <4 x float> %87, ptr %20, align 16, !tbaa !12
  %88 = load <4 x float>, ptr %18, align 16, !tbaa !12
  %89 = load <4 x float>, ptr %20, align 16, !tbaa !12
  %90 = load ptr, ptr %15, align 8, !tbaa !21
  %91 = getelementptr inbounds float, ptr %90, i64 0
  %92 = call <4 x float> @_mm_loadu_ps(ptr noundef %91)
  %93 = call <4 x float> @_mm_mul_ps(<4 x float> noundef %89, <4 x float> noundef %92)
  %94 = call <4 x float> @_mm_add_ps(<4 x float> noundef %88, <4 x float> noundef %93)
  store <4 x float> %94, ptr %18, align 16, !tbaa !12
  %95 = load <4 x float>, ptr %21, align 16, !tbaa !12
  %96 = call <2 x i64> @_mm_castps_si128(<4 x float> noundef %95)
  %97 = bitcast <2 x i64> %96 to <4 x i32>
  %98 = shufflevector <4 x i32> %97, <4 x i32> poison, <4 x i32> <i32 2, i32 2, i32 3, i32 3>
  %99 = bitcast <4 x i32> %98 to <2 x i64>
  %100 = call <4 x float> @_mm_castsi128_ps(<2 x i64> noundef %99)
  store <4 x float> %100, ptr %20, align 16, !tbaa !12
  %101 = load <4 x float>, ptr %19, align 16, !tbaa !12
  %102 = load <4 x float>, ptr %20, align 16, !tbaa !12
  %103 = load ptr, ptr %15, align 8, !tbaa !21
  %104 = getelementptr inbounds float, ptr %103, i64 0
  %105 = getelementptr inbounds float, ptr %104, i64 4
  %106 = call <4 x float> @_mm_loadu_ps(ptr noundef %105)
  %107 = call <4 x float> @_mm_mul_ps(<4 x float> noundef %102, <4 x float> noundef %106)
  %108 = call <4 x float> @_mm_add_ps(<4 x float> noundef %101, <4 x float> noundef %107)
  store <4 x float> %108, ptr %19, align 16, !tbaa !12
  %109 = load i32, ptr %16, align 4, !tbaa !26
  %110 = add nsw i32 %109, -1
  store i32 %110, ptr %16, align 4, !tbaa !26
  br label %111

111:                                              ; preds = %73
  %112 = load i32, ptr %16, align 4, !tbaa !26
  %113 = icmp sgt i32 %112, 0
  br i1 %113, label %73, label %114, !llvm.loop !629

114:                                              ; preds = %111
  call void @llvm.lifetime.start.p0(i64 16, ptr %22) #12
  %115 = load ptr, ptr %17, align 8, !tbaa !21
  %116 = getelementptr inbounds float, ptr %115, i64 4
  %117 = call <4 x float> @_mm_loadu_ps(ptr noundef %116)
  store <4 x float> %117, ptr %21, align 16, !tbaa !12
  %118 = load <4 x float>, ptr %21, align 16, !tbaa !12
  %119 = call <2 x i64> @_mm_castps_si128(<4 x float> noundef %118)
  %120 = bitcast <2 x i64> %119 to <4 x i32>
  %121 = shufflevector <4 x i32> %120, <4 x i32> poison, <4 x i32> <i32 0, i32 0, i32 1, i32 1>
  %122 = bitcast <4 x i32> %121 to <2 x i64>
  %123 = call <4 x float> @_mm_castsi128_ps(<2 x i64> noundef %122)
  store <4 x float> %123, ptr %20, align 16, !tbaa !12
  %124 = load <4 x float>, ptr %18, align 16, !tbaa !12
  %125 = load <4 x float>, ptr %20, align 16, !tbaa !12
  %126 = load ptr, ptr %15, align 8, !tbaa !21
  %127 = getelementptr inbounds float, ptr %126, i64 8
  %128 = call <4 x float> @_mm_loadu_ps(ptr noundef %127)
  %129 = call <4 x float> @_mm_mul_ps(<4 x float> noundef %125, <4 x float> noundef %128)
  %130 = call <4 x float> @_mm_add_ps(<4 x float> noundef %124, <4 x float> noundef %129)
  store <4 x float> %130, ptr %18, align 16, !tbaa !12
  %131 = load <4 x float>, ptr %21, align 16, !tbaa !12
  %132 = call <2 x i64> @_mm_castps_si128(<4 x float> noundef %131)
  %133 = bitcast <2 x i64> %132 to <4 x i32>
  %134 = shufflevector <4 x i32> %133, <4 x i32> poison, <4 x i32> <i32 2, i32 2, i32 2, i32 2>
  %135 = bitcast <4 x i32> %134 to <2 x i64>
  %136 = call <4 x float> @_mm_castsi128_ps(<2 x i64> noundef %135)
  store <4 x float> %136, ptr %20, align 16, !tbaa !12
  %137 = load ptr, ptr %15, align 8, !tbaa !21
  %138 = getelementptr inbounds float, ptr %137, i64 8
  %139 = getelementptr inbounds float, ptr %138, i64 4
  %140 = call <2 x i64> @_mm_loadl_epi64(ptr noundef %139)
  %141 = call <4 x float> @_mm_castsi128_ps(<2 x i64> noundef %140)
  store <4 x float> %141, ptr %22, align 16, !tbaa !12
  %142 = load <4 x float>, ptr %19, align 16, !tbaa !12
  %143 = load <4 x float>, ptr %22, align 16, !tbaa !12
  %144 = load <4 x float>, ptr %20, align 16, !tbaa !12
  %145 = call <4 x float> @_mm_mul_ps(<4 x float> noundef %143, <4 x float> noundef %144)
  %146 = call <4 x float> @_mm_add_ps(<4 x float> noundef %142, <4 x float> noundef %145)
  store <4 x float> %146, ptr %19, align 16, !tbaa !12
  call void @llvm.lifetime.end.p0(i64 16, ptr %22) #12
  %147 = load <4 x float>, ptr %18, align 16, !tbaa !12
  %148 = load <4 x float>, ptr %19, align 16, !tbaa !12
  %149 = call <4 x float> @_mm_add_ps(<4 x float> noundef %147, <4 x float> noundef %148)
  store <4 x float> %149, ptr %18, align 16, !tbaa !12
  %150 = load <4 x float>, ptr %18, align 16, !tbaa !12
  %151 = call <2 x i64> @_mm_castps_si128(<4 x float> noundef %150)
  %152 = bitcast <2 x i64> %151 to <4 x i32>
  %153 = shufflevector <4 x i32> %152, <4 x i32> poison, <4 x i32> <i32 2, i32 3, i32 0, i32 1>
  %154 = bitcast <4 x i32> %153 to <2 x i64>
  %155 = call <4 x float> @_mm_castsi128_ps(<2 x i64> noundef %154)
  store <4 x float> %155, ptr %20, align 16, !tbaa !12
  %156 = load <4 x float>, ptr %18, align 16, !tbaa !12
  %157 = load <4 x float>, ptr %20, align 16, !tbaa !12
  %158 = call <4 x float> @_mm_add_ps(<4 x float> noundef %156, <4 x float> noundef %157)
  store <4 x float> %158, ptr %18, align 16, !tbaa !12
  %159 = load ptr, ptr %14, align 8, !tbaa !21
  %160 = load <4 x float>, ptr %18, align 16, !tbaa !12
  %161 = call <2 x i64> @_mm_castps_si128(<4 x float> noundef %160)
  call void @_mm_storel_epi64(ptr noundef %159, <2 x i64> noundef %161)
  %162 = load i32, ptr %12, align 4, !tbaa !26
  %163 = load ptr, ptr %11, align 8, !tbaa !21
  %164 = sext i32 %162 to i64
  %165 = getelementptr inbounds float, ptr %163, i64 %164
  store ptr %165, ptr %11, align 8, !tbaa !21
  %166 = load ptr, ptr %10, align 8, !tbaa !3
  %167 = getelementptr inbounds nuw %struct.stbir__contributors, ptr %166, i32 1
  store ptr %167, ptr %10, align 8, !tbaa !3
  %168 = load ptr, ptr %14, align 8, !tbaa !21
  %169 = getelementptr inbounds float, ptr %168, i64 2
  store ptr %169, ptr %14, align 8, !tbaa !21
  call void @llvm.lifetime.end.p0(i64 16, ptr %21) #12
  call void @llvm.lifetime.end.p0(i64 16, ptr %20) #12
  call void @llvm.lifetime.end.p0(i64 16, ptr %19) #12
  call void @llvm.lifetime.end.p0(i64 16, ptr %18) #12
  call void @llvm.lifetime.end.p0(i64 8, ptr %17) #12
  call void @llvm.lifetime.end.p0(i64 4, ptr %16) #12
  call void @llvm.lifetime.end.p0(i64 8, ptr %15) #12
  br label %170

170:                                              ; preds = %114
  %171 = load ptr, ptr %14, align 8, !tbaa !21
  %172 = load ptr, ptr %13, align 8, !tbaa !21
  %173 = icmp ult ptr %171, %172
  br i1 %173, label %29, label %174, !llvm.loop !630

174:                                              ; preds = %170
  call void @llvm.lifetime.end.p0(i64 8, ptr %14) #12
  call void @llvm.lifetime.end.p0(i64 8, ptr %13) #12
  ret void
}