; Function Attrs: nounwind uwtable
define void @stbir__horizontal_gather_2_channels_with_n_coeffs_mod3(ptr noundef writeonly captures(address) %0, i32 noundef %1, ptr noundef %2, ptr noundef readonly captures(none) %3, ptr noundef readonly captures(none) %4, i32 noundef %5) #0 {
  %7 = shl i32 %1, 1
  %8 = zext i32 %7 to i64
  %9 = getelementptr inbounds nuw float, ptr %0, i64 %8
  %10 = sext i32 %5 to i64
  br label %11

11:                                               ; preds = %43, %6
  %.058 = phi ptr [ %4, %6 ], [ %63, %43 ]
  %.057 = phi ptr [ %0, %6 ], [ %65, %43 ]
  %.0 = phi ptr [ %3, %6 ], [ %64, %43 ]
  %12 = load i32, ptr %.0, align 4, !tbaa !34
  %13 = shl nsw i32 %12, 1
  %14 = sext i32 %13 to i64
  %15 = getelementptr inbounds float, ptr %2, i64 %14
  %16 = getelementptr inbounds nuw i8, ptr %.0, i64 4
  %17 = load i32, ptr %16, align 4, !tbaa !37
  %reass.sub = sub i32 %17, %12
  %18 = add i32 %reass.sub, -3
  %19 = ashr i32 %18, 2
  tail call void asm sideeffect "", "r,~{dirflag},~{fpsr},~{flags}"(ptr %15) #24, !srcloc !551
  %20 = load <4 x float>, ptr %.058, align 1, !tbaa !4
  %21 = shufflevector <4 x float> %20, <4 x float> poison, <4 x i32> <i32 0, i32 0, i32 1, i32 1>
  %22 = load <4 x float>, ptr %15, align 1, !tbaa !4
  %23 = fmul <4 x float> %22, %21
  %24 = shufflevector <4 x float> %20, <4 x float> poison, <4 x i32> <i32 2, i32 2, i32 3, i32 3>
  %25 = getelementptr inbounds nuw i8, ptr %15, i64 16
  %26 = load <4 x float>, ptr %25, align 1, !tbaa !4
  %27 = fmul <4 x float> %24, %26
  br label %28

28:                                               ; preds = %28, %11
  %.056 = phi ptr [ %15, %11 ], [ %30, %28 ]
  %.055 = phi i32 [ %19, %11 ], [ %41, %28 ]
  %.054 = phi ptr [ %.058, %11 ], [ %29, %28 ]
  %.053 = phi <4 x float> [ %23, %11 ], [ %35, %28 ]
  %.052 = phi <4 x float> [ %27, %11 ], [ %40, %28 ]
  %29 = getelementptr inbounds nuw i8, ptr %.054, i64 16
  %30 = getelementptr inbounds nuw i8, ptr %.056, i64 32
  tail call void asm sideeffect "", "r,~{dirflag},~{fpsr},~{flags}"(ptr nonnull %30) #24, !srcloc !552
  %31 = load <4 x float>, ptr %29, align 1, !tbaa !4
  %32 = shufflevector <4 x float> %31, <4 x float> poison, <4 x i32> <i32 0, i32 0, i32 1, i32 1>
  %33 = load <4 x float>, ptr %30, align 1, !tbaa !4
  %34 = fmul <4 x float> %33, %32
  %35 = fadd <4 x float> %.053, %34
  %36 = shufflevector <4 x float> %31, <4 x float> poison, <4 x i32> <i32 2, i32 2, i32 3, i32 3>
  %37 = getelementptr inbounds nuw i8, ptr %.056, i64 48
  %38 = load <4 x float>, ptr %37, align 1, !tbaa !4
  %39 = fmul <4 x float> %36, %38
  %40 = fadd <4 x float> %.052, %39
  %41 = add nsw i32 %.055, -1
  %42 = icmp sgt i32 %.055, 1
  br i1 %42, label %28, label %43, !llvm.loop !553

43:                                               ; preds = %28
  %44 = getelementptr inbounds nuw i8, ptr %.054, i64 32
  %45 = load <4 x float>, ptr %44, align 1, !tbaa !4
  %46 = shufflevector <4 x float> %45, <4 x float> poison, <4 x i32> <i32 0, i32 0, i32 1, i32 1>
  %47 = getelementptr inbounds nuw i8, ptr %.056, i64 64
  %48 = load <4 x float>, ptr %47, align 1, !tbaa !4
  %49 = fmul <4 x float> %48, %46
  %50 = fadd <4 x float> %35, %49
  %51 = shufflevector <4 x float> %45, <4 x float> poison, <4 x i32> <i32 2, i32 2, i32 2, i32 2>
  %52 = getelementptr inbounds nuw i8, ptr %.056, i64 80
  %53 = load i64, ptr %52, align 1, !tbaa !4
  %54 = insertelement <2 x i64> <i64 poison, i64 0>, i64 %53, i64 0
  %55 = bitcast <2 x i64> %54 to <4 x float>
  %56 = fmul <4 x float> %51, %55
  %57 = fadd <4 x float> %40, %56
  %58 = fadd <4 x float> %50, %57
  %59 = shufflevector <4 x float> %58, <4 x float> poison, <4 x i32> <i32 2, i32 3, i32 poison, i32 poison>
  %60 = fadd <4 x float> %58, %59
  %61 = bitcast <4 x float> %60 to <2 x i64>
  %62 = extractelement <2 x i64> %61, i64 0
  store i64 %62, ptr %.057, align 1, !tbaa !4
  %63 = getelementptr inbounds float, ptr %.058, i64 %10
  %64 = getelementptr inbounds nuw i8, ptr %.0, i64 8
  %65 = getelementptr inbounds nuw i8, ptr %.057, i64 8
  %66 = icmp ult ptr %65, %9
  br i1 %66, label %11, label %67, !llvm.loop !554

67:                                               ; preds = %43
  ret void
}